; Function Attrs: mustprogress nounwind uwtable
define void @_ZN6icu_7716ICULocaleServiceD2Ev(ptr noundef nonnull align 8 dereferenceable(408) initializes((0, 8)) %0) unnamed_addr #0 align 2 {
  store ptr getelementptr inbounds nuw inrange(-16, 192) (i8, ptr @_ZTVN6icu_7716ICULocaleServiceE, i64 16), ptr %0, align 8, !tbaa !15
  %2 = getelementptr inbounds nuw i8, ptr %0, i64 344
  tail call void @_ZN6icu_7713UnicodeStringD1Ev(ptr noundef nonnull align 8 dereferenceable(64) %2) #15
  %3 = getelementptr inbounds nuw i8, ptr %0, i64 120
  tail call void @_ZN6icu_776LocaleD1Ev(ptr noundef nonnull align 8 dereferenceable(217) %3) #15
  tail call void @_ZN6icu_7710ICUServiceD2Ev(ptr noundef nonnull align 8 dereferenceable(120) %0) #15
  ret void
}